target datalayout = "e-m:e-p270:32:32-p271:32:32-p272:64:64-i64:64-i128:128-f80:128-n8:16:32:64-S128"
target triple = "x86_64-pc-linux-gnu"

%struct.blob = type { ptr, ptr, i64, i64, i32 }

@.str = private unnamed_addr constant [13 x i8] c"blobDestroy\0A\00", align 1
@.str.1 = private unnamed_addr constant [10 x i8] c"b != NULL\00", align 1
@.str.2 = private unnamed_addr constant [108 x i8] c"generated/home/dtcxzyw/WorkSpace/Projects/compilers/llvm-opt-benchmark/bench/clamav/clamav/libclamav/blob.c\00", align 1
@__PRETTY_FUNCTION__.blobDestroy = private unnamed_addr constant [25 x i8] c"void blobDestroy(blob *)\00", align 1
@.str.3 = private unnamed_addr constant [17 x i8] c"blobList != NULL\00", align 1
@__PRETTY_FUNCTION__.blobArrayDestroy = private unnamed_addr constant [36 x i8] c"void blobArrayDestroy(blob **, int)\00", align 1
@.str.4 = private unnamed_addr constant [22 x i8] c"blobArrayDestroy: %d\0A\00", align 1

; Function Attrs: nounwind uwtable
define void @blobDestroy(ptr noundef %0) #0 {
  %2 = alloca ptr, align 8
  store ptr %0, ptr %2, align 8
  call void (ptr, ...) @cli_dbgmsg(ptr noundef @.str)
  %3 = load ptr, ptr %2, align 8
  %4 = icmp ne ptr %3, null
  br i1 %4, label %5, label %6

5:                                                ; preds = %1
  br label %7

6:                                                ; preds = %1
  call void @__assert_fail(ptr noundef @.str.1, ptr noundef @.str.2, i32 noundef 86, ptr noundef @__PRETTY_FUNCTION__.blobDestroy) #8
  unreachable

7:                                                ; preds = %5
  %8 = load ptr, ptr %2, align 8
  %9 = getelementptr inbounds %struct.blob, ptr %8, i32 0, i32 0
  %10 = load ptr, ptr %9, align 8
  %11 = icmp ne ptr %10, null
  br i1 %11, label %12, label %16

12:                                               ; preds = %7
  %13 = load ptr, ptr %2, align 8
  %14 = getelementptr inbounds %struct.blob, ptr %13, i32 0, i32 0
  %15 = load ptr, ptr %14, align 8
  call void @free(ptr noundef %15) #9
  br label %16

16:                                               ; preds = %12, %7
  %17 = load ptr, ptr %2, align 8
  %18 = getelementptr inbounds %struct.blob, ptr %17, i32 0, i32 1
  %19 = load ptr, ptr %18, align 8
  %20 = icmp ne ptr %19, null
  br i1 %20, label %21, label %25

21:                                               ; preds = %16
  %22 = load ptr, ptr %2, align 8
  %23 = getelementptr inbounds %struct.blob, ptr %22, i32 0, i32 1
  %24 = load ptr, ptr %23, align 8
  call void @free(ptr noundef %24) #9
  br label %25

25:                                               ; preds = %21, %16
  %26 = load ptr, ptr %2, align 8
  call void @free(ptr noundef %26) #9
  ret void
}

; Function Attrs: nounwind uwtable
define void @blobArrayDestroy(ptr noundef %0, i32 noundef %1) #0 {
  %3 = alloca ptr, align 8
  %4 = alloca i32, align 4
  store ptr %0, ptr %3, align 8
  store i32 %1, ptr %4, align 4
  %5 = load ptr, ptr %3, align 8
  %6 = icmp ne ptr %5, null
  br i1 %6, label %7, label %8

7:                                                ; preds = %2
  br label %9

8:                                                ; preds = %2
  call void @__assert_fail(ptr noundef @.str.3, ptr noundef @.str.2, i32 noundef 103, ptr noundef @__PRETTY_FUNCTION__.blobArrayDestroy) #8
  unreachable

9:                                                ; preds = %7
  br label %10

10:                                               ; preds = %32, %9
  %11 = load i32, ptr %4, align 4
  %12 = add nsw i32 %11, -1
  store i32 %12, ptr %4, align 4
  %13 = icmp sge i32 %12, 0
  br i1 %13, label %14, label %33

14:                                               ; preds = %10
  %15 = load i32, ptr %4, align 4
  call void (ptr, ...) @cli_dbgmsg(ptr noundef @.str.4, i32 noundef %15)
  %16 = load ptr, ptr %3, align 8
  %17 = load i32, ptr %4, align 4
  %18 = sext i32 %17 to i64
  %19 = getelementptr inbounds ptr, ptr %16, i64 %18
  %20 = load ptr, ptr %19, align 8
  %21 = icmp ne ptr %20, null
  br i1 %21, label %22, label %32

22:                                               ; preds = %14
  %23 = load ptr, ptr %3, align 8
  %24 = load i32, ptr %4, align 4
  %25 = sext i32 %24 to i64
  %26 = getelementptr inbounds ptr, ptr %23, i64 %25
  %27 = load ptr, ptr %26, align 8
  call void @blobDestroy(ptr noundef %27)
  %28 = load ptr, ptr %3, align 8
  %29 = load i32, ptr %4, align 4
  %30 = sext i32 %29 to i64
  %31 = getelementptr inbounds ptr, ptr %28, i64 %30
  store ptr null, ptr %31, align 8
  br label %32

32:                                               ; preds = %22, %14
  br label %10

33:                                               ; preds = %10
  ret void
}