; Function Attrs: nounwind uwtable
define void @blobArrayDestroy(ptr noundef %0, i32 noundef %1) local_unnamed_addr #2 {
  %.not = icmp eq ptr %0, null
  br i1 %.not, label %5, label %.preheader

.preheader:                                       ; preds = %2
  %3 = icmp sgt i32 %1, 0
  br i1 %3, label %.lr.ph.preheader, label %._crit_edge

.lr.ph.preheader:                                 ; preds = %.preheader
  %4 = zext nneg i32 %1 to i64
  br label %.lr.ph

5:                                                ; preds = %2
  tail call void @__assert_fail(ptr noundef nonnull @.str.3, ptr noundef nonnull @.str.2, i32 noundef 103, ptr noundef nonnull @__PRETTY_FUNCTION__.blobArrayDestroy) #17
  unreachable

.lr.ph:                                           ; preds = %.lr.ph.preheader, %16
  %indvars.iv = phi i64 [ %4, %.lr.ph.preheader ], [ %indvars.iv.next, %16 ]
  %indvars.iv.next = add nsw i64 %indvars.iv, -1
  %6 = trunc nuw nsw i64 %indvars.iv.next to i32
  tail call void (ptr, ...) @cli_dbgmsg(ptr noundef nonnull @.str.4, i32 noundef %6) #16
  %7 = getelementptr inbounds ptr, ptr %0, i64 %indvars.iv.next
  %8 = load ptr, ptr %7, align 8
  %.not10 = icmp eq ptr %8, null
  br i1 %.not10, label %16, label %9

9:                                                ; preds = %.lr.ph
  tail call void (ptr, ...) @cli_dbgmsg(ptr noundef nonnull @.str) #16
  %10 = load ptr, ptr %8, align 8
  %.not8.i = icmp eq ptr %10, null
  br i1 %.not8.i, label %12, label %11

11:                                               ; preds = %9
  tail call void @free(ptr noundef nonnull %10) #16
  br label %12

12:                                               ; preds = %11, %9
  %13 = getelementptr inbounds i8, ptr %8, i64 8
  %14 = load ptr, ptr %13, align 8
  %.not9.i = icmp eq ptr %14, null
  br i1 %.not9.i, label %blobDestroy.exit, label %15

15:                                               ; preds = %12
  tail call void @free(ptr noundef nonnull %14) #16
  br label %blobDestroy.exit

blobDestroy.exit:                                 ; preds = %12, %15
  tail call void @free(ptr noundef nonnull %8) #16
  store ptr null, ptr %7, align 8
  br label %16

16:                                               ; preds = %blobDestroy.exit, %.lr.ph
  %17 = icmp ugt i64 %indvars.iv, 1
  br i1 %17, label %.lr.ph, label %._crit_edge

._crit_edge:                                      ; preds = %16, %.preheader
  ret void
}